target datalayout = "e-m:e-p270:32:32-p271:32:32-p272:64:64-i64:64-i128:128-f80:128-n8:16:32:64-S128"
target triple = "x86_64-pc-linux-gnu"

%struct.ePICContext = type { %struct.ElsDecCtx, i32, %struct.ElsUnsignedRung, i8, i8, [256 x i8], [512 x i8], [256 x i8], [256 x i8], [14 x i8], [14 x i8], i8, i32, [1024 x i32], %struct.ePICPixHash }
%struct.ElsDecCtx = type { ptr, i32, i64, i32, i32, i32, i32 }
%struct.ElsUnsignedRung = type { [11 x i8], ptr, i64, i16 }
%struct.ePICPixHash = type { [256 x ptr], [256 x i32], [256 x i32] }

@.str.28 = private unnamed_addr constant [28 x i8] c"RGB %d %d %d (out of range)\00", align 1

; Function Attrs: inlinehint nounwind willreturn memory(none) uwtable
define internal i32 @mid_pred(i32 noundef %0, i32 noundef %1, i32 noundef %2) #10 {
  %4 = alloca i32, align 4
  %5 = alloca i32, align 4
  %6 = alloca i32, align 4
  store i32 %0, ptr %4, align 4, !tbaa !31
  store i32 %1, ptr %5, align 4, !tbaa !31
  store i32 %2, ptr %6, align 4, !tbaa !31
  %7 = load i32, ptr %4, align 4, !tbaa !31
  %8 = load i32, ptr %5, align 4, !tbaa !31
  %9 = icmp sgt i32 %7, %8
  br i1 %9, label %10, label %24

10:                                               ; preds = %3
  %11 = load i32, ptr %6, align 4, !tbaa !31
  %12 = load i32, ptr %5, align 4, !tbaa !31
  %13 = icmp sgt i32 %11, %12
  br i1 %13, label %14, label %23

14:                                               ; preds = %10
  %15 = load i32, ptr %6, align 4, !tbaa !31
  %16 = load i32, ptr %4, align 4, !tbaa !31
  %17 = icmp sgt i32 %15, %16
  br i1 %17, label %18, label %20

18:                                               ; preds = %14
  %19 = load i32, ptr %4, align 4, !tbaa !31
  store i32 %19, ptr %5, align 4, !tbaa !31
  br label %22

20:                                               ; preds = %14
  %21 = load i32, ptr %6, align 4, !tbaa !31
  store i32 %21, ptr %5, align 4, !tbaa !31
  br label %22

22:                                               ; preds = %20, %18
  br label %23

23:                                               ; preds = %22, %10
  br label %38

24:                                               ; preds = %3
  %25 = load i32, ptr %5, align 4, !tbaa !31
  %26 = load i32, ptr %6, align 4, !tbaa !31
  %27 = icmp sgt i32 %25, %26
  br i1 %27, label %28, label %37

28:                                               ; preds = %24
  %29 = load i32, ptr %6, align 4, !tbaa !31
  %30 = load i32, ptr %4, align 4, !tbaa !31
  %31 = icmp sgt i32 %29, %30
  br i1 %31, label %32, label %34

32:                                               ; preds = %28
  %33 = load i32, ptr %6, align 4, !tbaa !31
  store i32 %33, ptr %5, align 4, !tbaa !31
  br label %36

34:                                               ; preds = %28
  %35 = load i32, ptr %4, align 4, !tbaa !31
  store i32 %35, ptr %5, align 4, !tbaa !31
  br label %36

36:                                               ; preds = %34, %32
  br label %37

37:                                               ; preds = %36, %24
  br label %38

38:                                               ; preds = %37, %23
  %39 = load i32, ptr %5, align 4, !tbaa !31
  ret i32 %39
}

; Function Attrs: inlinehint nounwind uwtable
define internal i32 @epic_decode_component_pred(ptr noundef %0, i32 noundef %1, i32 noundef %2, i32 noundef %3) #9 {
  %5 = alloca ptr, align 8
  %6 = alloca i32, align 4
  %7 = alloca i32, align 4
  %8 = alloca i32, align 4
  %9 = alloca i32, align 4
  store ptr %0, ptr %5, align 8, !tbaa !139
  store i32 %1, ptr %6, align 4, !tbaa !31
  store i32 %2, ptr %7, align 4, !tbaa !31
  store i32 %3, ptr %8, align 4, !tbaa !31
  call void @llvm.lifetime.start.p0(i64 4, ptr %9) #12
  %10 = load ptr, ptr %5, align 8, !tbaa !139
  %11 = getelementptr inbounds nuw %struct.ePICContext, ptr %10, i32 0, i32 0
  %12 = load ptr, ptr %5, align 8, !tbaa !139
  %13 = getelementptr inbounds nuw %struct.ePICContext, ptr %12, i32 0, i32 2
  %14 = call i32 @ff_els_decode_unsigned(ptr noundef %11, ptr noundef %13)
  store i32 %14, ptr %9, align 4, !tbaa !31
  %15 = load i32, ptr %6, align 4, !tbaa !31
  %16 = load i32, ptr %6, align 4, !tbaa !31
  %17 = load i32, ptr %7, align 4, !tbaa !31
  %18 = add nsw i32 %16, %17
  %19 = load i32, ptr %8, align 4, !tbaa !31
  %20 = sub nsw i32 %18, %19
  %21 = load i32, ptr %7, align 4, !tbaa !31
  %22 = call i32 @mid_pred(i32 noundef %15, i32 noundef %20, i32 noundef %21) #16
  %23 = load i32, ptr %9, align 4, !tbaa !31
  %24 = lshr i32 %23, 1
  %25 = load i32, ptr %9, align 4, !tbaa !31
  %26 = and i32 %25, 1
  %27 = sub i32 0, %26
  %28 = xor i32 %24, %27
  %29 = sub i32 %22, %28
  call void @llvm.lifetime.end.p0(i64 4, ptr %9) #12
  ret i32 %29
}

; Function Attrs: nounwind uwtable
define internal i32 @epic_decode_pixel_pred(ptr noundef %0, i32 noundef %1, i32 noundef %2, ptr noundef %3, ptr noundef %4) #1 {
  %6 = alloca i32, align 4
  %7 = alloca ptr, align 8
  %8 = alloca i32, align 4
  %9 = alloca i32, align 4
  %10 = alloca ptr, align 8
  %11 = alloca ptr, align 8
  %12 = alloca i32, align 4
  %13 = alloca i32, align 4
  %14 = alloca i32, align 4
  %15 = alloca i32, align 4
  %16 = alloca i32, align 4
  %17 = alloca i32, align 4
  %18 = alloca i32, align 4
  %19 = alloca i32, align 4
  %20 = alloca i32, align 4
  %21 = alloca i32, align 4
  %22 = alloca i32, align 4
  %23 = alloca i32, align 4
  store ptr %0, ptr %7, align 8, !tbaa !139
  store i32 %1, ptr %8, align 4, !tbaa !31
  store i32 %2, ptr %9, align 4, !tbaa !31
  store ptr %3, ptr %10, align 8, !tbaa !49
  store ptr %4, ptr %11, align 8, !tbaa !49
  call void @llvm.lifetime.start.p0(i64 4, ptr %12) #12
  call void @llvm.lifetime.start.p0(i64 4, ptr %13) #12
  call void @llvm.lifetime.start.p0(i64 4, ptr %14) #12
  call void @llvm.lifetime.start.p0(i64 4, ptr %15) #12
  call void @llvm.lifetime.start.p0(i64 4, ptr %16) #12
  call void @llvm.lifetime.start.p0(i64 4, ptr %17) #12
  call void @llvm.lifetime.start.p0(i64 4, ptr %18) #12
  call void @llvm.lifetime.start.p0(i64 4, ptr %19) #12
  call void @llvm.lifetime.start.p0(i64 4, ptr %20) #12
  call void @llvm.lifetime.start.p0(i64 4, ptr %21) #12
  call void @llvm.lifetime.start.p0(i64 4, ptr %22) #12
  %24 = load i32, ptr %8, align 4, !tbaa !31
  %25 = icmp ne i32 %24, 0
  br i1 %25, label %26, label %99

26:                                               ; preds = %5
  %27 = load i32, ptr %9, align 4, !tbaa !31
  %28 = icmp ne i32 %27, 0
  br i1 %28, label %29, label %99

29:                                               ; preds = %26
  %30 = load ptr, ptr %10, align 8, !tbaa !49
  %31 = load i32, ptr %8, align 4, !tbaa !31
  %32 = sub nsw i32 %31, 1
  %33 = sext i32 %32 to i64
  %34 = getelementptr inbounds i32, ptr %30, i64 %33
  %35 = load i32, ptr %34, align 4, !tbaa !31
  store i32 %35, ptr %13, align 4, !tbaa !31
  %36 = load ptr, ptr %11, align 8, !tbaa !49
  %37 = load i32, ptr %8, align 4, !tbaa !31
  %38 = sext i32 %37 to i64
  %39 = getelementptr inbounds i32, ptr %36, i64 %38
  %40 = load i32, ptr %39, align 4, !tbaa !31
  store i32 %40, ptr %12, align 4, !tbaa !31
  %41 = load ptr, ptr %11, align 8, !tbaa !49
  %42 = load i32, ptr %8, align 4, !tbaa !31
  %43 = sub nsw i32 %42, 1
  %44 = sext i32 %43 to i64
  %45 = getelementptr inbounds i32, ptr %41, i64 %44
  %46 = load i32, ptr %45, align 4, !tbaa !31
  store i32 %46, ptr %14, align 4, !tbaa !31
  %47 = load i32, ptr %12, align 4, !tbaa !31
  %48 = lshr i32 %47, 8
  %49 = and i32 %48, 255
  store i32 %49, ptr %17, align 4, !tbaa !31
  %50 = load i32, ptr %13, align 4, !tbaa !31
  %51 = lshr i32 %50, 8
  %52 = and i32 %51, 255
  store i32 %52, ptr %18, align 4, !tbaa !31
  %53 = load i32, ptr %14, align 4, !tbaa !31
  %54 = lshr i32 %53, 8
  %55 = and i32 %54, 255
  store i32 %55, ptr %19, align 4, !tbaa !31
  %56 = load ptr, ptr %7, align 8, !tbaa !139
  %57 = load i32, ptr %17, align 4, !tbaa !31
  %58 = load i32, ptr %18, align 4, !tbaa !31
  %59 = load i32, ptr %19, align 4, !tbaa !31
  %60 = call i32 @epic_decode_component_pred(ptr noundef %56, i32 noundef %57, i32 noundef %58, i32 noundef %59)
  store i32 %60, ptr %21, align 4, !tbaa !31
  %61 = load i32, ptr %21, align 4, !tbaa !31
  %62 = load ptr, ptr %7, align 8, !tbaa !139
  %63 = load i32, ptr %12, align 4, !tbaa !31
  %64 = lshr i32 %63, 16
  %65 = and i32 %64, 255
  %66 = load i32, ptr %17, align 4, !tbaa !31
  %67 = sub i32 %65, %66
  %68 = load i32, ptr %13, align 4, !tbaa !31
  %69 = lshr i32 %68, 16
  %70 = and i32 %69, 255
  %71 = load i32, ptr %18, align 4, !tbaa !31
  %72 = sub i32 %70, %71
  %73 = load i32, ptr %14, align 4, !tbaa !31
  %74 = lshr i32 %73, 16
  %75 = and i32 %74, 255
  %76 = load i32, ptr %19, align 4, !tbaa !31
  %77 = sub i32 %75, %76
  %78 = call i32 @epic_decode_component_pred(ptr noundef %62, i32 noundef %67, i32 noundef %72, i32 noundef %77)
  %79 = add nsw i32 %61, %78
  store i32 %79, ptr %20, align 4, !tbaa !31
  %80 = load i32, ptr %21, align 4, !tbaa !31
  %81 = load ptr, ptr %7, align 8, !tbaa !139
  %82 = load i32, ptr %12, align 4, !tbaa !31
  %83 = lshr i32 %82, 0
  %84 = and i32 %83, 255
  %85 = load i32, ptr %17, align 4, !tbaa !31
  %86 = sub i32 %84, %85
  %87 = load i32, ptr %13, align 4, !tbaa !31
  %88 = lshr i32 %87, 0
  %89 = and i32 %88, 255
  %90 = load i32, ptr %18, align 4, !tbaa !31
  %91 = sub i32 %89, %90
  %92 = load i32, ptr %14, align 4, !tbaa !31
  %93 = lshr i32 %92, 0
  %94 = and i32 %93, 255
  %95 = load i32, ptr %19, align 4, !tbaa !31
  %96 = sub i32 %94, %95
  %97 = call i32 @epic_decode_component_pred(ptr noundef %81, i32 noundef %86, i32 noundef %91, i32 noundef %96)
  %98 = add nsw i32 %80, %97
  store i32 %98, ptr %22, align 4, !tbaa !31
  br label %161

99:                                               ; preds = %26, %5
  %100 = load i32, ptr %8, align 4, !tbaa !31
  %101 = icmp ne i32 %100, 0
  br i1 %101, label %102, label %109

102:                                              ; preds = %99
  %103 = load ptr, ptr %10, align 8, !tbaa !49
  %104 = load i32, ptr %8, align 4, !tbaa !31
  %105 = sub nsw i32 %104, 1
  %106 = sext i32 %105 to i64
  %107 = getelementptr inbounds i32, ptr %103, i64 %106
  %108 = load i32, ptr %107, align 4, !tbaa !31
  store i32 %108, ptr %15, align 4, !tbaa !31
  br label %115

109:                                              ; preds = %99
  %110 = load ptr, ptr %11, align 8, !tbaa !49
  %111 = load i32, ptr %8, align 4, !tbaa !31
  %112 = sext i32 %111 to i64
  %113 = getelementptr inbounds i32, ptr %110, i64 %112
  %114 = load i32, ptr %113, align 4, !tbaa !31
  store i32 %114, ptr %15, align 4, !tbaa !31
  br label %115

115:                                              ; preds = %109, %102
  %116 = load ptr, ptr %7, align 8, !tbaa !139
  %117 = getelementptr inbounds nuw %struct.ePICContext, ptr %116, i32 0, i32 0
  %118 = load ptr, ptr %7, align 8, !tbaa !139
  %119 = getelementptr inbounds nuw %struct.ePICContext, ptr %118, i32 0, i32 2
  %120 = call i32 @ff_els_decode_unsigned(ptr noundef %117, ptr noundef %119)
  store i32 %120, ptr %16, align 4, !tbaa !31
  %121 = load i32, ptr %15, align 4, !tbaa !31
  %122 = lshr i32 %121, 16
  %123 = and i32 %122, 255
  %124 = load i32, ptr %16, align 4, !tbaa !31
  %125 = lshr i32 %124, 1
  %126 = load i32, ptr %16, align 4, !tbaa !31
  %127 = and i32 %126, 1
  %128 = sub i32 0, %127
  %129 = xor i32 %125, %128
  %130 = sub i32 %123, %129
  store i32 %130, ptr %20, align 4, !tbaa !31
  %131 = load ptr, ptr %7, align 8, !tbaa !139
  %132 = getelementptr inbounds nuw %struct.ePICContext, ptr %131, i32 0, i32 0
  %133 = load ptr, ptr %7, align 8, !tbaa !139
  %134 = getelementptr inbounds nuw %struct.ePICContext, ptr %133, i32 0, i32 2
  %135 = call i32 @ff_els_decode_unsigned(ptr noundef %132, ptr noundef %134)
  store i32 %135, ptr %16, align 4, !tbaa !31
  %136 = load i32, ptr %15, align 4, !tbaa !31
  %137 = lshr i32 %136, 8
  %138 = and i32 %137, 255
  %139 = load i32, ptr %16, align 4, !tbaa !31
  %140 = lshr i32 %139, 1
  %141 = load i32, ptr %16, align 4, !tbaa !31
  %142 = and i32 %141, 1
  %143 = sub i32 0, %142
  %144 = xor i32 %140, %143
  %145 = sub i32 %138, %144
  store i32 %145, ptr %21, align 4, !tbaa !31
  %146 = load ptr, ptr %7, align 8, !tbaa !139
  %147 = getelementptr inbounds nuw %struct.ePICContext, ptr %146, i32 0, i32 0
  %148 = load ptr, ptr %7, align 8, !tbaa !139
  %149 = getelementptr inbounds nuw %struct.ePICContext, ptr %148, i32 0, i32 2
  %150 = call i32 @ff_els_decode_unsigned(ptr noundef %147, ptr noundef %149)
  store i32 %150, ptr %16, align 4, !tbaa !31
  %151 = load i32, ptr %15, align 4, !tbaa !31
  %152 = lshr i32 %151, 0
  %153 = and i32 %152, 255
  %154 = load i32, ptr %16, align 4, !tbaa !31
  %155 = lshr i32 %154, 1
  %156 = load i32, ptr %16, align 4, !tbaa !31
  %157 = and i32 %156, 1
  %158 = sub i32 0, %157
  %159 = xor i32 %155, %158
  %160 = sub i32 %153, %159
  store i32 %160, ptr %22, align 4, !tbaa !31
  br label %161

161:                                              ; preds = %115, %29
  %162 = load i32, ptr %20, align 4, !tbaa !31
  %163 = icmp slt i32 %162, 0
  br i1 %163, label %179, label %164

164:                                              ; preds = %161
  %165 = load i32, ptr %21, align 4, !tbaa !31
  %166 = icmp slt i32 %165, 0
  br i1 %166, label %179, label %167

167:                                              ; preds = %164
  %168 = load i32, ptr %22, align 4, !tbaa !31
  %169 = icmp slt i32 %168, 0
  br i1 %169, label %179, label %170

170:                                              ; preds = %167
  %171 = load i32, ptr %20, align 4, !tbaa !31
  %172 = icmp sgt i32 %171, 255
  br i1 %172, label %179, label %173

173:                                              ; preds = %170
  %174 = load i32, ptr %21, align 4, !tbaa !31
  %175 = icmp sgt i32 %174, 255
  br i1 %175, label %179, label %176

176:                                              ; preds = %173
  %177 = load i32, ptr %22, align 4, !tbaa !31
  %178 = icmp sgt i32 %177, 255
  br i1 %178, label %179, label %183

179:                                              ; preds = %176, %173, %170, %167, %164, %161
  %180 = load i32, ptr %20, align 4, !tbaa !31
  %181 = load i32, ptr %21, align 4, !tbaa !31
  %182 = load i32, ptr %22, align 4, !tbaa !31
  call void (ptr, ptr, ...) @avpriv_request_sample(ptr noundef null, ptr noundef @.str.28, i32 noundef %180, i32 noundef %181, i32 noundef %182)
  store i32 0, ptr %6, align 4
  store i32 1, ptr %23, align 4
  br label %192

183:                                              ; preds = %176
  %184 = load i32, ptr %20, align 4, !tbaa !31
  %185 = shl i32 %184, 16
  %186 = load i32, ptr %21, align 4, !tbaa !31
  %187 = shl i32 %186, 8
  %188 = or i32 %185, %187
  %189 = load i32, ptr %22, align 4, !tbaa !31
  %190 = shl i32 %189, 0
  %191 = or i32 %188, %190
  store i32 %191, ptr %6, align 4
  store i32 1, ptr %23, align 4
  br label %192

192:                                              ; preds = %183, %179
  call void @llvm.lifetime.end.p0(i64 4, ptr %22) #12
  call void @llvm.lifetime.end.p0(i64 4, ptr %21) #12
  call void @llvm.lifetime.end.p0(i64 4, ptr %20) #12
  call void @llvm.lifetime.end.p0(i64 4, ptr %19) #12
  call void @llvm.lifetime.end.p0(i64 4, ptr %18) #12
  call void @llvm.lifetime.end.p0(i64 4, ptr %17) #12
  call void @llvm.lifetime.end.p0(i64 4, ptr %16) #12
  call void @llvm.lifetime.end.p0(i64 4, ptr %15) #12
  call void @llvm.lifetime.end.p0(i64 4, ptr %14) #12
  call void @llvm.lifetime.end.p0(i64 4, ptr %13) #12
  call void @llvm.lifetime.end.p0(i64 4, ptr %12) #12
  %193 = load i32, ptr %6, align 4
  ret i32 %193
}