; Function Attrs: nounwind uwtable
define internal fastcc range(i32 0, 16777216) i32 @epic_decode_pixel_pred(ptr noundef %0, i32 noundef range(i32 -2147483648, 16384) %1, i32 noundef %2, ptr noundef readonly captures(none) %3, ptr noundef readonly captures(none) %4) unnamed_addr #1 {
  %6 = icmp ne i32 %1, 0
  %7 = icmp ne i32 %2, 0
  %or.cond = and i1 %6, %7
  br i1 %or.cond, label %8, label %87

8:                                                ; preds = %5
  %9 = add nsw i32 %1, -1
  %10 = sext i32 %9 to i64
  %11 = getelementptr inbounds i32, ptr %3, i64 %10
  %12 = load i32, ptr %11, align 4, !tbaa !98
  %13 = sext i32 %1 to i64
  %14 = getelementptr inbounds i32, ptr %4, i64 %13
  %15 = load i32, ptr %14, align 4, !tbaa !98
  %16 = getelementptr inbounds i32, ptr %4, i64 %10
  %17 = load i32, ptr %16, align 4, !tbaa !98
  %18 = lshr i32 %15, 8
  %19 = and i32 %18, 255
  %20 = lshr i32 %12, 8
  %21 = and i32 %20, 255
  %22 = lshr i32 %17, 8
  %23 = and i32 %22, 255
  %24 = getelementptr inbounds nuw i8, ptr %0, i64 48
  %25 = tail call i32 @ff_els_decode_unsigned(ptr noundef %0, ptr noundef nonnull %24) #12
  %26 = add nuw nsw i32 %19, %21
  %27 = sub nsw i32 %26, %23
  %28 = icmp sgt i32 %19, %27
  br i1 %28, label %29, label %33

29:                                               ; preds = %8
  %30 = icmp sgt i32 %21, %27
  br i1 %30, label %31, label %epic_decode_component_pred.exit

31:                                               ; preds = %29
  %32 = tail call i32 @llvm.umin.i32(i32 %21, i32 %19)
  br label %epic_decode_component_pred.exit

33:                                               ; preds = %8
  %34 = icmp samesign ugt i32 %27, %21
  br i1 %34, label %35, label %epic_decode_component_pred.exit

35:                                               ; preds = %33
  %36 = tail call i32 @llvm.umax.i32(i32 %21, i32 %19)
  br label %epic_decode_component_pred.exit

epic_decode_component_pred.exit:                  ; preds = %29, %31, %33, %35
  %.0.i.i = phi i32 [ %27, %29 ], [ %27, %33 ], [ %32, %31 ], [ %36, %35 ]
  %37 = lshr i32 %25, 1
  %38 = and i32 %25, 1
  %39 = sub nsw i32 0, %38
  %40 = xor i32 %37, %39
  %41 = sub i32 %.0.i.i, %40
  %42 = lshr i32 %15, 16
  %43 = and i32 %42, 255
  %44 = sub nsw i32 %43, %19
  %45 = lshr i32 %12, 16
  %46 = and i32 %45, 255
  %47 = sub nsw i32 %46, %21
  %48 = lshr i32 %17, 16
  %49 = and i32 %48, 255
  %.neg = sub nsw i32 %23, %49
  %50 = tail call i32 @ff_els_decode_unsigned(ptr noundef nonnull %0, ptr noundef nonnull %24) #12
  %51 = add nsw i32 %44, %47
  %52 = add nsw i32 %51, %.neg
  %53 = icmp sgt i32 %44, %52
  br i1 %53, label %54, label %57

54:                                               ; preds = %epic_decode_component_pred.exit
  %55 = icmp sgt i32 %47, %52
  br i1 %55, label %56, label %epic_decode_component_pred.exit82

56:                                               ; preds = %54
  %..i.i81 = tail call i32 @llvm.smin.i32(i32 range(i32 -255, 256) %47, i32 range(i32 -255, 256) %44)
  br label %epic_decode_component_pred.exit82

57:                                               ; preds = %epic_decode_component_pred.exit
  %58 = icmp sgt i32 %52, %47
  br i1 %58, label %59, label %epic_decode_component_pred.exit82

59:                                               ; preds = %57
  %.20.i.i80 = tail call i32 @llvm.smax.i32(i32 range(i32 -255, 256) %47, i32 range(i32 -255, 256) %44)
  br label %epic_decode_component_pred.exit82

epic_decode_component_pred.exit82:                ; preds = %54, %56, %57, %59
  %.0.i.i79 = phi i32 [ %52, %54 ], [ %52, %57 ], [ %..i.i81, %56 ], [ %.20.i.i80, %59 ]
  %60 = lshr i32 %50, 1
  %61 = and i32 %50, 1
  %62 = sub nsw i32 0, %61
  %63 = xor i32 %60, %62
  %64 = sub i32 %41, %63
  %65 = add i32 %64, %.0.i.i79
  %66 = and i32 %15, 255
  %67 = sub nsw i32 %66, %19
  %68 = and i32 %12, 255
  %69 = sub nsw i32 %68, %21
  %70 = and i32 %17, 255
  %.neg87 = sub nsw i32 %23, %70
  %71 = tail call i32 @ff_els_decode_unsigned(ptr noundef nonnull %0, ptr noundef nonnull %24) #12
  %72 = add nsw i32 %67, %69
  %73 = add nsw i32 %72, %.neg87
  %74 = icmp sgt i32 %67, %73
  br i1 %74, label %75, label %78

75:                                               ; preds = %epic_decode_component_pred.exit82
  %76 = icmp sgt i32 %69, %73
  br i1 %76, label %77, label %epic_decode_component_pred.exit86

77:                                               ; preds = %75
  %..i.i85 = tail call i32 @llvm.smin.i32(i32 range(i32 -255, 256) %69, i32 range(i32 -255, 256) %67)
  br label %epic_decode_component_pred.exit86

78:                                               ; preds = %epic_decode_component_pred.exit82
  %79 = icmp sgt i32 %73, %69
  br i1 %79, label %80, label %epic_decode_component_pred.exit86

80:                                               ; preds = %78
  %.20.i.i84 = tail call i32 @llvm.smax.i32(i32 range(i32 -255, 256) %69, i32 range(i32 -255, 256) %67)
  br label %epic_decode_component_pred.exit86

epic_decode_component_pred.exit86:                ; preds = %75, %77, %78, %80
  %.0.i.i83 = phi i32 [ %73, %75 ], [ %73, %78 ], [ %..i.i85, %77 ], [ %.20.i.i84, %80 ]
  %81 = lshr i32 %71, 1
  %82 = and i32 %71, 1
  %83 = sub nsw i32 0, %82
  %84 = xor i32 %81, %83
  %85 = sub i32 %41, %84
  %86 = add i32 %85, %.0.i.i83
  br label %115

87:                                               ; preds = %5
  %88 = sext i32 %1 to i64
  %89 = getelementptr i32, ptr %3, i64 %88
  %90 = getelementptr i8, ptr %89, i64 -4
  %.077.in = select i1 %6, ptr %90, ptr %4
  %.077 = load i32, ptr %.077.in, align 4, !tbaa !98
  %91 = getelementptr inbounds nuw i8, ptr %0, i64 48
  %92 = tail call i32 @ff_els_decode_unsigned(ptr noundef %0, ptr noundef nonnull %91) #12
  %93 = lshr i32 %.077, 16
  %94 = and i32 %93, 255
  %95 = lshr i32 %92, 1
  %96 = and i32 %92, 1
  %97 = sub nsw i32 0, %96
  %98 = xor i32 %95, %97
  %99 = sub i32 %94, %98
  %100 = tail call i32 @ff_els_decode_unsigned(ptr noundef %0, ptr noundef nonnull %91) #12
  %101 = lshr i32 %.077, 8
  %102 = and i32 %101, 255
  %103 = lshr i32 %100, 1
  %104 = and i32 %100, 1
  %105 = sub nsw i32 0, %104
  %106 = xor i32 %103, %105
  %107 = sub i32 %102, %106
  %108 = tail call i32 @ff_els_decode_unsigned(ptr noundef %0, ptr noundef nonnull %91) #12
  %109 = and i32 %.077, 255
  %110 = lshr i32 %108, 1
  %111 = and i32 %108, 1
  %112 = sub nsw i32 0, %111
  %113 = xor i32 %110, %112
  %114 = sub i32 %109, %113
  br label %115

115:                                              ; preds = %87, %epic_decode_component_pred.exit86
  %.075 = phi i32 [ %65, %epic_decode_component_pred.exit86 ], [ %99, %87 ]
  %.074 = phi i32 [ %41, %epic_decode_component_pred.exit86 ], [ %107, %87 ]
  %.0 = phi i32 [ %86, %epic_decode_component_pred.exit86 ], [ %114, %87 ]
  %116 = icmp slt i32 %.075, 0
  %117 = icmp slt i32 %.074, 0
  %or.cond3 = select i1 %116, i1 true, i1 %117
  %118 = icmp slt i32 %.0, 0
  %or.cond5 = select i1 %or.cond3, i1 true, i1 %118
  %119 = icmp sgt i32 %.075, 255
  %or.cond7 = or i1 %119, %or.cond5
  %120 = icmp sgt i32 %.074, 255
  %or.cond9 = select i1 %or.cond7, i1 true, i1 %120
  %121 = icmp sgt i32 %.0, 255
  %or.cond11 = select i1 %or.cond9, i1 true, i1 %121
  br i1 %or.cond11, label %122, label %123

122:                                              ; preds = %115
  tail call void (ptr, ptr, ...) @avpriv_request_sample(ptr noundef null, ptr noundef nonnull @.str.28, i32 noundef %.075, i32 noundef %.074, i32 noundef %.0) #12
  br label %128

123:                                              ; preds = %115
  %124 = shl nuw nsw i32 %.075, 16
  %125 = shl nuw nsw i32 %.074, 8
  %126 = or i32 %125, %124
  %127 = or i32 %126, %.0
  br label %128

128:                                              ; preds = %123, %122
  %.076 = phi i32 [ 0, %122 ], [ %127, %123 ]
  ret i32 %.076
}